target datalayout = "e-m:e-p270:32:32-p271:32:32-p272:64:64-i64:64-i128:128-f80:128-n8:16:32:64-S128"
target triple = "x86_64-pc-linux-gnu"

%"struct.(anonymous namespace)::DumpVisitor" = type <{ i32, i8, [3 x i8] }>
%"class.std::__1::reference_wrapper" = type { ptr }
%"struct.(anonymous namespace)::DumpVisitor::CtorArgPrinter" = type { ptr }
%"class.(anonymous namespace)::itanium_demangle::Node.base" = type <{ ptr, i8, i16 }>
%"class.std::initializer_list" = type { ptr, i64 }
%"class.(anonymous namespace)::itanium_demangle::TypeRequirement" = type { %"class.(anonymous namespace)::itanium_demangle::Node.base", ptr }

@.str.3 = private unnamed_addr constant [2 x i8] c"\0A\00", align 1
@.str.4 = private unnamed_addr constant [2 x i8] c" \00", align 1
@stderr = external global ptr, align 8
@.str.5 = private unnamed_addr constant [3 x i8] c"%s\00", align 1
@.str.8 = private unnamed_addr constant [4 x i8] c"%s(\00", align 1
@.str.9 = private unnamed_addr constant [2 x i8] c")\00", align 1
@.str.13 = private unnamed_addr constant [7 x i8] c"<null>\00", align 1
@.str.144 = private unnamed_addr constant [16 x i8] c"TypeRequirement\00", align 1

; Function Attrs: mustprogress nounwind uwtable
define internal void @_ZNSt3__117reference_wrapperIN12_GLOBAL__N_111DumpVisitorEEC2B8ne210000IRS2_vTnNS_9enable_ifIXntsr17__is_same_uncvrefIT_S3_EE5valueEiE4typeELi0EEEOS7_(ptr noundef nonnull align 8 dereferenceable(8) %0, ptr noundef nonnull align 4 dereferenceable(5) %1) unnamed_addr #6 align 2 {
  %3 = alloca ptr, align 8
  %4 = alloca ptr, align 8
  %5 = alloca ptr, align 8
  store ptr %0, ptr %3, align 8, !tbaa !238
  store ptr %1, ptr %4, align 8, !tbaa !9
  %6 = load ptr, ptr %3, align 8
  call void @llvm.lifetime.start.p0(i64 8, ptr %5) #19
  %7 = load ptr, ptr %4, align 8, !tbaa !9
  store ptr %7, ptr %5, align 8, !tbaa !9
  %8 = load ptr, ptr %5, align 8, !tbaa !9
  %9 = getelementptr inbounds nuw %"class.std::__1::reference_wrapper", ptr %6, i32 0, i32 0
  store ptr %8, ptr %9, align 8, !tbaa !240
  call void @llvm.lifetime.end.p0(i64 8, ptr %5) #19
  ret void
}

; Function Attrs: inlinehint mustprogress nounwind uwtable
define internal ptr @_ZNSt3__13refB8ne210000IN12_GLOBAL__N_111DumpVisitorEEENS_17reference_wrapperIT_EERS4_(ptr noundef nonnull align 4 dereferenceable(5) %0) #2 {
  %2 = alloca %"class.std::__1::reference_wrapper", align 8
  %3 = alloca ptr, align 8
  store ptr %0, ptr %3, align 8, !tbaa !9
  %4 = load ptr, ptr %3, align 8, !tbaa !9
  call void @_ZNSt3__117reference_wrapperIN12_GLOBAL__N_111DumpVisitorEEC2B8ne210000IRS2_vTnNS_9enable_ifIXntsr17__is_same_uncvrefIT_S3_EE5valueEiE4typeELi0EEEOS7_(ptr noundef nonnull align 8 dereferenceable(8) %2, ptr noundef nonnull align 4 dereferenceable(5) %4) #19
  %5 = getelementptr inbounds nuw %"class.std::__1::reference_wrapper", ptr %2, i32 0, i32 0
  %6 = load ptr, ptr %5, align 8
  ret ptr %6
}

; Function Attrs: mustprogress uwtable
define internal void @_ZN12_GLOBAL__N_111DumpVisitor5printEPKNS_16itanium_demangle4NodeE(ptr noundef nonnull align 4 dereferenceable(5) %0, ptr noundef %1) #3 align 2 {
  %3 = alloca ptr, align 8
  %4 = alloca ptr, align 8
  %5 = alloca %"class.std::__1::reference_wrapper", align 8
  store ptr %0, ptr %3, align 8, !tbaa !9
  store ptr %1, ptr %4, align 8, !tbaa !4
  %6 = load ptr, ptr %3, align 8
  %7 = load ptr, ptr %4, align 8, !tbaa !4
  %8 = icmp ne ptr %7, null
  br i1 %8, label %9, label %15

9:                                                ; preds = %2
  %10 = load ptr, ptr %4, align 8, !tbaa !4
  %11 = call ptr @_ZNSt3__13refB8ne210000IN12_GLOBAL__N_111DumpVisitorEEENS_17reference_wrapperIT_EERS4_(ptr noundef nonnull align 4 dereferenceable(5) %6) #19
  %12 = getelementptr inbounds nuw %"class.std::__1::reference_wrapper", ptr %5, i32 0, i32 0
  store ptr %11, ptr %12, align 8
  %13 = getelementptr inbounds nuw %"class.std::__1::reference_wrapper", ptr %5, i32 0, i32 0
  %14 = load ptr, ptr %13, align 8
  call void @_ZNK12_GLOBAL__N_116itanium_demangle4Node5visitINSt3__117reference_wrapperINS_11DumpVisitorEEEEEvT_(ptr noundef nonnull align 8 dereferenceable(11) %10, ptr %14)
  br label %16

15:                                               ; preds = %2
  call void @_ZN12_GLOBAL__N_111DumpVisitor8printStrEPKc(ptr noundef nonnull align 4 dereferenceable(5) %6, ptr noundef @.str.13)
  br label %16

16:                                               ; preds = %15, %9
  ret void
}

; Function Attrs: mustprogress nounwind uwtable
define internal void @_ZN12_GLOBAL__N_111DumpVisitor8printStrEPKc(ptr noundef nonnull align 4 dereferenceable(5) %0, ptr noundef %1) #6 align 2 {
  %3 = alloca ptr, align 8
  %4 = alloca ptr, align 8
  store ptr %0, ptr %3, align 8, !tbaa !9
  store ptr %1, ptr %4, align 8, !tbaa !194
  %5 = load ptr, ptr @stderr, align 8, !tbaa !242
  %6 = load ptr, ptr %4, align 8, !tbaa !194
  %7 = call i32 (ptr, ptr, ...) @fprintf(ptr noundef %5, ptr noundef @.str.5, ptr noundef %6) #19
  ret void
}

; Function Attrs: mustprogress nounwind uwtable
define linkonce_odr hidden noundef ptr @_ZNKSt16initializer_listIbE3endB8ne210000Ev(ptr noundef nonnull align 8 dereferenceable(16) %0) #6 comdat align 2 {
  %2 = alloca ptr, align 8
  store ptr %0, ptr %2, align 8, !tbaa !463
  %3 = load ptr, ptr %2, align 8
  %4 = getelementptr inbounds nuw %"class.std::initializer_list", ptr %3, i32 0, i32 0
  %5 = load ptr, ptr %4, align 8, !tbaa !459
  %6 = getelementptr inbounds nuw %"class.std::initializer_list", ptr %3, i32 0, i32 1
  %7 = load i64, ptr %6, align 8, !tbaa !462
  %8 = getelementptr inbounds nuw i8, ptr %5, i64 %7
  ret ptr %8
}

; Function Attrs: mustprogress nounwind uwtable
define linkonce_odr hidden noundef ptr @_ZNKSt16initializer_listIbE5beginB8ne210000Ev(ptr noundef nonnull align 8 dereferenceable(16) %0) #6 comdat align 2 {
  %2 = alloca ptr, align 8
  store ptr %0, ptr %2, align 8, !tbaa !463
  %3 = load ptr, ptr %2, align 8
  %4 = getelementptr inbounds nuw %"class.std::initializer_list", ptr %3, i32 0, i32 0
  %5 = load ptr, ptr %4, align 8, !tbaa !459
  ret ptr %5
}

; Function Attrs: mustprogress nounwind uwtable
define internal noundef zeroext i1 @_ZN12_GLOBAL__N_111DumpVisitor12wantsNewlineINS_16itanium_demangle4NodeEEEbPKT_(ptr noundef %0) #6 align 2 {
  %2 = alloca ptr, align 8
  store ptr %0, ptr %2, align 8, !tbaa !4
  ret i1 true
}

; Function Attrs: mustprogress uwtable
define internal void @_ZN12_GLOBAL__N_111DumpVisitor23printWithPendingNewlineIPKNS_16itanium_demangle4NodeEEEvT_(ptr noundef nonnull align 4 dereferenceable(5) %0, ptr noundef %1) #3 align 2 {
  %3 = alloca ptr, align 8
  %4 = alloca ptr, align 8
  store ptr %0, ptr %3, align 8, !tbaa !9
  store ptr %1, ptr %4, align 8, !tbaa !4
  %5 = load ptr, ptr %3, align 8
  %6 = load ptr, ptr %4, align 8, !tbaa !4
  call void @_ZN12_GLOBAL__N_111DumpVisitor5printEPKNS_16itanium_demangle4NodeE(ptr noundef nonnull align 4 dereferenceable(5) %5, ptr noundef %6)
  %7 = load ptr, ptr %4, align 8, !tbaa !4
  %8 = call noundef zeroext i1 @_ZN12_GLOBAL__N_111DumpVisitor12wantsNewlineINS_16itanium_demangle4NodeEEEbPKT_(ptr noundef %7)
  br i1 %8, label %9, label %11

9:                                                ; preds = %2
  %10 = getelementptr inbounds nuw %"struct.(anonymous namespace)::DumpVisitor", ptr %5, i32 0, i32 1
  store i8 1, ptr %10, align 4, !tbaa !15
  br label %11

11:                                               ; preds = %9, %2
  ret void
}

; Function Attrs: mustprogress uwtable
define internal void @_ZN12_GLOBAL__N_111DumpVisitor7newLineEv(ptr noundef nonnull align 4 dereferenceable(5) %0) #3 align 2 {
  %2 = alloca ptr, align 8
  %3 = alloca i32, align 4
  store ptr %0, ptr %2, align 8, !tbaa !9
  %4 = load ptr, ptr %2, align 8
  call void @_ZN12_GLOBAL__N_111DumpVisitor8printStrEPKc(ptr noundef nonnull align 4 dereferenceable(5) %4, ptr noundef @.str.3)
  call void @llvm.lifetime.start.p0(i64 4, ptr %3) #19
  store i32 0, ptr %3, align 4, !tbaa !196
  br label %5

5:                                                ; preds = %12, %1
  %6 = load i32, ptr %3, align 4, !tbaa !196
  %7 = getelementptr inbounds nuw %"struct.(anonymous namespace)::DumpVisitor", ptr %4, i32 0, i32 0
  %8 = load i32, ptr %7, align 4, !tbaa !11
  %9 = icmp ne i32 %6, %8
  br i1 %9, label %11, label %10

10:                                               ; preds = %5
  call void @llvm.lifetime.end.p0(i64 4, ptr %3) #19
  br label %15

11:                                               ; preds = %5
  call void @_ZN12_GLOBAL__N_111DumpVisitor8printStrEPKc(ptr noundef nonnull align 4 dereferenceable(5) %4, ptr noundef @.str.4)
  br label %12

12:                                               ; preds = %11
  %13 = load i32, ptr %3, align 4, !tbaa !196
  %14 = add i32 %13, 1
  store i32 %14, ptr %3, align 4, !tbaa !196
  br label %5, !llvm.loop !197

15:                                               ; preds = %10
  %16 = getelementptr inbounds nuw %"struct.(anonymous namespace)::DumpVisitor", ptr %4, i32 0, i32 1
  store i8 0, ptr %16, align 4, !tbaa !15
  ret void
}

; Function Attrs: mustprogress nounwind uwtable
define internal noundef zeroext i1 @_ZN12_GLOBAL__N_111DumpVisitor14anyWantNewlineIJPKNS_16itanium_demangle4NodeEEEEbDpT_(ptr noundef %0) #6 align 2 {
  %2 = alloca i1, align 1
  %3 = alloca ptr, align 8
  %4 = alloca ptr, align 8
  %5 = alloca %"class.std::initializer_list", align 8
  %6 = alloca [1 x i8], align 1
  %7 = alloca ptr, align 8
  %8 = alloca ptr, align 8
  %9 = alloca i32, align 4
  %10 = alloca i8, align 1
  store ptr %0, ptr %3, align 8, !tbaa !4
  call void @llvm.lifetime.start.p0(i64 8, ptr %4) #19
  call void @llvm.lifetime.start.p0(i64 16, ptr %5) #19
  call void @llvm.lifetime.start.p0(i64 1, ptr %6) #19
  %11 = load ptr, ptr %3, align 8, !tbaa !4
  %12 = call noundef zeroext i1 @_ZN12_GLOBAL__N_111DumpVisitor12wantsNewlineINS_16itanium_demangle4NodeEEEbPKT_(ptr noundef %11)
  %13 = zext i1 %12 to i8
  store i8 %13, ptr %6, align 1, !tbaa !209
  %14 = getelementptr inbounds nuw %"class.std::initializer_list", ptr %5, i32 0, i32 0
  store ptr %6, ptr %14, align 8, !tbaa !459
  %15 = getelementptr inbounds nuw %"class.std::initializer_list", ptr %5, i32 0, i32 1
  store i64 1, ptr %15, align 8, !tbaa !462
  store ptr %5, ptr %4, align 8, !tbaa !463
  call void @llvm.lifetime.start.p0(i64 8, ptr %7) #19
  %16 = load ptr, ptr %4, align 8, !tbaa !463
  %17 = call noundef ptr @_ZNKSt16initializer_listIbE5beginB8ne210000Ev(ptr noundef nonnull align 8 dereferenceable(16) %16) #19
  store ptr %17, ptr %7, align 8, !tbaa !465
  call void @llvm.lifetime.start.p0(i64 8, ptr %8) #19
  %18 = load ptr, ptr %4, align 8, !tbaa !463
  %19 = call noundef ptr @_ZNKSt16initializer_listIbE3endB8ne210000Ev(ptr noundef nonnull align 8 dereferenceable(16) %18) #19
  store ptr %19, ptr %8, align 8, !tbaa !465
  br label %20

20:                                               ; preds = %37, %1
  %21 = load ptr, ptr %7, align 8, !tbaa !465
  %22 = load ptr, ptr %8, align 8, !tbaa !465
  %23 = icmp ne ptr %21, %22
  br i1 %23, label %25, label %24

24:                                               ; preds = %20
  store i32 2, ptr %9, align 4
  br label %40

25:                                               ; preds = %20
  call void @llvm.lifetime.start.p0(i64 1, ptr %10) #19
  %26 = load ptr, ptr %7, align 8, !tbaa !465
  %27 = load i8, ptr %26, align 1, !tbaa !209, !range !210, !noundef !211
  %28 = trunc i8 %27 to i1
  %29 = zext i1 %28 to i8
  store i8 %29, ptr %10, align 1, !tbaa !209
  %30 = load i8, ptr %10, align 1, !tbaa !209, !range !210, !noundef !211
  %31 = trunc i8 %30 to i1
  br i1 %31, label %32, label %33

32:                                               ; preds = %25
  store i1 true, ptr %2, align 1
  store i32 1, ptr %9, align 4
  br label %34

33:                                               ; preds = %25
  store i32 0, ptr %9, align 4
  br label %34

34:                                               ; preds = %33, %32
  call void @llvm.lifetime.end.p0(i64 1, ptr %10) #19
  %35 = load i32, ptr %9, align 4
  switch i32 %35, label %40 [
    i32 0, label %36
  ]

36:                                               ; preds = %34
  br label %37

37:                                               ; preds = %36
  %38 = load ptr, ptr %7, align 8, !tbaa !465
  %39 = getelementptr inbounds nuw i8, ptr %38, i32 1
  store ptr %39, ptr %7, align 8, !tbaa !465
  br label %20

40:                                               ; preds = %34, %24
  call void @llvm.lifetime.end.p0(i64 8, ptr %8) #19
  call void @llvm.lifetime.end.p0(i64 8, ptr %7) #19
  call void @llvm.lifetime.end.p0(i64 1, ptr %6) #19
  call void @llvm.lifetime.end.p0(i64 16, ptr %5) #19
  call void @llvm.lifetime.end.p0(i64 8, ptr %4) #19
  %41 = load i32, ptr %9, align 4
  switch i32 %41, label %45 [
    i32 2, label %42
    i32 1, label %43
  ]

42:                                               ; preds = %40
  store i1 false, ptr %2, align 1
  br label %43

43:                                               ; preds = %42, %40
  %44 = load i1, ptr %2, align 1
  ret i1 %44

45:                                               ; preds = %40
  unreachable
}

; Function Attrs: mustprogress uwtable
define internal void @_ZN12_GLOBAL__N_111DumpVisitor14CtorArgPrinterclIPKNS_16itanium_demangle4NodeEJEEEvT_DpT0_(ptr noundef nonnull align 8 dereferenceable(8) %0, ptr noundef %1) #3 align 2 {
  %3 = alloca ptr, align 8
  %4 = alloca ptr, align 8
  %5 = alloca [1 x i32], align 4
  store ptr %0, ptr %3, align 8, !tbaa !455
  store ptr %1, ptr %4, align 8, !tbaa !4
  %6 = load ptr, ptr %3, align 8
  %7 = load ptr, ptr %4, align 8, !tbaa !4
  %8 = call noundef zeroext i1 @_ZN12_GLOBAL__N_111DumpVisitor14anyWantNewlineIJPKNS_16itanium_demangle4NodeEEEEbDpT_(ptr noundef %7)
  br i1 %8, label %9, label %12

9:                                                ; preds = %2
  %10 = getelementptr inbounds nuw %"struct.(anonymous namespace)::DumpVisitor::CtorArgPrinter", ptr %6, i32 0, i32 0
  %11 = load ptr, ptr %10, align 8, !tbaa !457
  call void @_ZN12_GLOBAL__N_111DumpVisitor7newLineEv(ptr noundef nonnull align 4 dereferenceable(5) %11)
  br label %12

12:                                               ; preds = %9, %2
  %13 = getelementptr inbounds nuw %"struct.(anonymous namespace)::DumpVisitor::CtorArgPrinter", ptr %6, i32 0, i32 0
  %14 = load ptr, ptr %13, align 8, !tbaa !457
  %15 = load ptr, ptr %4, align 8, !tbaa !4
  call void @_ZN12_GLOBAL__N_111DumpVisitor23printWithPendingNewlineIPKNS_16itanium_demangle4NodeEEEvT_(ptr noundef nonnull align 4 dereferenceable(5) %14, ptr noundef %15)
  call void @llvm.lifetime.start.p0(i64 4, ptr %5) #19
  call void @llvm.memset.p0.i64(ptr align 4 %5, i8 0, i64 4, i1 false)
  call void @llvm.lifetime.end.p0(i64 4, ptr %5) #19
  ret void
}

; Function Attrs: mustprogress uwtable
define internal void @_ZNK12_GLOBAL__N_116itanium_demangle15TypeRequirement5matchINS_11DumpVisitor14CtorArgPrinterEEEvT_(ptr noundef nonnull align 8 dereferenceable(24) %0, ptr %1) #3 align 2 {
  %3 = alloca %"struct.(anonymous namespace)::DumpVisitor::CtorArgPrinter", align 8
  %4 = alloca ptr, align 8
  %5 = getelementptr inbounds nuw %"struct.(anonymous namespace)::DumpVisitor::CtorArgPrinter", ptr %3, i32 0, i32 0
  store ptr %1, ptr %5, align 8
  store ptr %0, ptr %4, align 8, !tbaa !188
  %6 = load ptr, ptr %4, align 8
  %7 = getelementptr inbounds nuw %"class.(anonymous namespace)::itanium_demangle::TypeRequirement", ptr %6, i32 0, i32 1
  %8 = load ptr, ptr %7, align 8, !tbaa !679
  call void @_ZN12_GLOBAL__N_111DumpVisitor14CtorArgPrinterclIPKNS_16itanium_demangle4NodeEJEEEvT_DpT0_(ptr noundef nonnull align 8 dereferenceable(8) %3, ptr noundef %8)
  ret void
}

; Function Attrs: mustprogress nounwind uwtable
define internal noundef ptr @_ZN12_GLOBAL__N_116itanium_demangle8NodeKindINS0_15TypeRequirementEE4nameEv() #6 align 2 {
  ret ptr @.str.144
}

; Function Attrs: mustprogress uwtable
define internal void @_ZN12_GLOBAL__N_111DumpVisitorclINS_16itanium_demangle15TypeRequirementEEEvPKT_(ptr noundef nonnull align 4 dereferenceable(5) %0, ptr noundef %1) #3 align 2 {
  %3 = alloca ptr, align 8
  %4 = alloca ptr, align 8
  %5 = alloca %"struct.(anonymous namespace)::DumpVisitor::CtorArgPrinter", align 8
  store ptr %0, ptr %3, align 8, !tbaa !9
  store ptr %1, ptr %4, align 8, !tbaa !188
  %6 = load ptr, ptr %3, align 8
  %7 = getelementptr inbounds nuw %"struct.(anonymous namespace)::DumpVisitor", ptr %6, i32 0, i32 0
  %8 = load i32, ptr %7, align 4, !tbaa !11
  %9 = add i32 %8, 2
  store i32 %9, ptr %7, align 4, !tbaa !11
  %10 = load ptr, ptr @stderr, align 8, !tbaa !242
  %11 = call noundef ptr @_ZN12_GLOBAL__N_116itanium_demangle8NodeKindINS0_15TypeRequirementEE4nameEv()
  %12 = call i32 (ptr, ptr, ...) @fprintf(ptr noundef %10, ptr noundef @.str.8, ptr noundef %11) #19
  %13 = load ptr, ptr %4, align 8, !tbaa !188
  %14 = getelementptr inbounds nuw %"struct.(anonymous namespace)::DumpVisitor::CtorArgPrinter", ptr %5, i32 0, i32 0
  store ptr %6, ptr %14, align 8, !tbaa !9
  %15 = getelementptr inbounds nuw %"struct.(anonymous namespace)::DumpVisitor::CtorArgPrinter", ptr %5, i32 0, i32 0
  %16 = load ptr, ptr %15, align 8
  call void @_ZNK12_GLOBAL__N_116itanium_demangle15TypeRequirement5matchINS_11DumpVisitor14CtorArgPrinterEEEvT_(ptr noundef nonnull align 8 dereferenceable(24) %13, ptr %16)
  %17 = load ptr, ptr @stderr, align 8, !tbaa !242
  %18 = call i32 (ptr, ptr, ...) @fprintf(ptr noundef %17, ptr noundef @.str.9) #19
  %19 = getelementptr inbounds nuw %"struct.(anonymous namespace)::DumpVisitor", ptr %6, i32 0, i32 0
  %20 = load i32, ptr %19, align 4, !tbaa !11
  %21 = sub i32 %20, 2
  store i32 %21, ptr %19, align 4, !tbaa !11
  ret void
}

; Function Attrs: inlinehint mustprogress uwtable
define internal void @_ZNSt3__18__invokeB8ne210000IRN12_GLOBAL__N_111DumpVisitorEJPKNS1_16itanium_demangle15TypeRequirementEEEEDTclclsr3stdE7declvalIT_EEspclsr3stdE7declvalIT0_EEEEOS8_DpOS9_(ptr noundef nonnull align 4 dereferenceable(5) %0, ptr noundef nonnull align 8 dereferenceable(8) %1) #5 {
  %3 = alloca ptr, align 8
  %4 = alloca ptr, align 8
  store ptr %0, ptr %3, align 8, !tbaa !9
  store ptr %1, ptr %4, align 8, !tbaa !447
  %5 = load ptr, ptr %3, align 8, !tbaa !9
  %6 = load ptr, ptr %4, align 8, !tbaa !447
  %7 = load ptr, ptr %6, align 8, !tbaa !188
  call void @_ZN12_GLOBAL__N_111DumpVisitorclINS_16itanium_demangle15TypeRequirementEEEvPKT_(ptr noundef nonnull align 4 dereferenceable(5) %5, ptr noundef %7)
  ret void
}